target datalayout = "e-m:e-p270:32:32-p271:32:32-p272:64:64-i64:64-i128:128-f80:128-n8:16:32:64-S128"
target triple = "x86_64-pc-linux-gnu"

@.str = private unnamed_addr constant [2 x i8] c"/\00", align 1

; Function Attrs: nounwind uwtable
define ptr @H5G__component(ptr noundef %0, ptr noundef %1) #0 {
  %3 = alloca ptr, align 8
  %4 = alloca ptr, align 8
  store ptr %0, ptr %3, align 8
  store ptr %1, ptr %4, align 8
  br label %5

5:                                                ; preds = %10, %2
  %6 = load ptr, ptr %3, align 8
  %7 = load i8, ptr %6, align 1
  %8 = sext i8 %7 to i32
  %9 = icmp eq i32 47, %8
  br i1 %9, label %10, label %13

10:                                               ; preds = %5
  %11 = load ptr, ptr %3, align 8
  %12 = getelementptr inbounds i8, ptr %11, i32 1
  store ptr %12, ptr %3, align 8
  br label %5

13:                                               ; preds = %5
  %14 = load ptr, ptr %4, align 8
  %15 = icmp ne ptr %14, null
  br i1 %15, label %16, label %20

16:                                               ; preds = %13
  %17 = load ptr, ptr %3, align 8
  %18 = call i64 @strcspn(ptr noundef %17, ptr noundef @.str) #6
  %19 = load ptr, ptr %4, align 8
  store i64 %18, ptr %19, align 8
  br label %20

20:                                               ; preds = %16, %13
  %21 = load ptr, ptr %3, align 8
  ret ptr %21
}

; Function Attrs: nounwind uwtable
define internal i32 @H5G__common_path(ptr noundef %0, ptr noundef %1) #0 {
  %3 = alloca ptr, align 8
  %4 = alloca ptr, align 8
  %5 = alloca ptr, align 8
  %6 = alloca ptr, align 8
  %7 = alloca i64, align 8
  %8 = alloca i64, align 8
  %9 = alloca i32, align 4
  store ptr %0, ptr %3, align 8
  store ptr %1, ptr %4, align 8
  store i32 0, ptr %9, align 4
  %10 = load ptr, ptr %3, align 8
  %11 = call ptr @H5RS_get_str(ptr noundef %10)
  store ptr %11, ptr %5, align 8
  %12 = load ptr, ptr %5, align 8
  %13 = call ptr @H5G__component(ptr noundef %12, ptr noundef %7)
  store ptr %13, ptr %5, align 8
  %14 = load ptr, ptr %4, align 8
  %15 = call ptr @H5RS_get_str(ptr noundef %14)
  store ptr %15, ptr %6, align 8
  %16 = load ptr, ptr %6, align 8
  %17 = call ptr @H5G__component(ptr noundef %16, ptr noundef %8)
  store ptr %17, ptr %6, align 8
  br label %18

18:                                               ; preds = %58, %2
  %19 = load ptr, ptr %5, align 8
  %20 = load i8, ptr %19, align 1
  %21 = sext i8 %20 to i32
  %22 = icmp ne i32 %21, 0
  br i1 %22, label %23, label %28

23:                                               ; preds = %18
  %24 = load ptr, ptr %6, align 8
  %25 = load i8, ptr %24, align 1
  %26 = sext i8 %25 to i32
  %27 = icmp ne i32 %26, 0
  br label %28

28:                                               ; preds = %23, %18
  %29 = phi i1 [ false, %18 ], [ %27, %23 ]
  br i1 %29, label %30, label %59

30:                                               ; preds = %28
  %31 = load i64, ptr %7, align 8
  %32 = load i64, ptr %8, align 8
  %33 = icmp eq i64 %31, %32
  br i1 %33, label %34, label %55

34:                                               ; preds = %30
  %35 = load ptr, ptr %5, align 8
  %36 = load ptr, ptr %6, align 8
  %37 = load i64, ptr %7, align 8
  %38 = call i32 @strncmp(ptr noundef %35, ptr noundef %36, i64 noundef %37) #6
  %39 = icmp eq i32 %38, 0
  br i1 %39, label %40, label %51

40:                                               ; preds = %34
  %41 = load i64, ptr %7, align 8
  %42 = load ptr, ptr %5, align 8
  %43 = getelementptr inbounds i8, ptr %42, i64 %41
  store ptr %43, ptr %5, align 8
  %44 = load i64, ptr %8, align 8
  %45 = load ptr, ptr %6, align 8
  %46 = getelementptr inbounds i8, ptr %45, i64 %44
  store ptr %46, ptr %6, align 8
  %47 = load ptr, ptr %5, align 8
  %48 = call ptr @H5G__component(ptr noundef %47, ptr noundef %7)
  store ptr %48, ptr %5, align 8
  %49 = load ptr, ptr %6, align 8
  %50 = call ptr @H5G__component(ptr noundef %49, ptr noundef %8)
  store ptr %50, ptr %6, align 8
  br label %54

51:                                               ; preds = %34
  br label %52

52:                                               ; preds = %51
  store i32 0, ptr %9, align 4
  br label %66

53:                                               ; No predecessors!
  br label %54

54:                                               ; preds = %53, %40
  br label %58

55:                                               ; preds = %30
  br label %56

56:                                               ; preds = %55
  store i32 0, ptr %9, align 4
  br label %66

57:                                               ; No predecessors!
  br label %58

58:                                               ; preds = %57, %54
  br label %18

59:                                               ; preds = %28
  %60 = load ptr, ptr %6, align 8
  %61 = load i8, ptr %60, align 1
  %62 = sext i8 %61 to i32
  %63 = icmp eq i32 %62, 0
  br i1 %63, label %64, label %65

64:                                               ; preds = %59
  store i32 1, ptr %9, align 4
  br label %65

65:                                               ; preds = %64, %59
  br label %66

66:                                               ; preds = %65, %56, %52
  %67 = load i32, ptr %9, align 4
  ret i32 %67
}