; Function Attrs: nounwind uwtable
define internal fastcc range(i32 0, 2) i32 @H5G__common_path(ptr noundef %0, ptr noundef %1) unnamed_addr #2 {
  %3 = tail call ptr @H5RS_get_str(ptr noundef %0) #10
  br label %4

4:                                                ; preds = %4, %2
  %.0.i = phi ptr [ %3, %2 ], [ %7, %4 ]
  %5 = load i8, ptr %.0.i, align 1
  %6 = icmp eq i8 %5, 47
  %7 = getelementptr inbounds i8, ptr %.0.i, i64 1
  br i1 %6, label %4, label %H5G__component.exit

H5G__component.exit:                              ; preds = %4
  %8 = tail call i64 @strcspn(ptr noundef nonnull %.0.i, ptr noundef nonnull @.str) #9
  %9 = tail call ptr @H5RS_get_str(ptr noundef %1) #10
  br label %10

10:                                               ; preds = %10, %H5G__component.exit
  %.0.i18 = phi ptr [ %9, %H5G__component.exit ], [ %13, %10 ]
  %11 = load i8, ptr %.0.i18, align 1
  %12 = icmp eq i8 %11, 47
  %13 = getelementptr inbounds i8, ptr %.0.i18, i64 1
  br i1 %12, label %10, label %H5G__component.exit19

H5G__component.exit19:                            ; preds = %10
  %14 = load i8, ptr %.0.i, align 1
  %.not28 = icmp eq i8 %14, 0
  br i1 %.not28, label %.critedge, label %.lr.ph.preheader

.lr.ph.preheader:                                 ; preds = %H5G__component.exit19
  %15 = tail call i64 @strcspn(ptr noundef nonnull %.0.i18, ptr noundef nonnull @.str) #9
  br label %.lr.ph

.lr.ph:                                           ; preds = %.lr.ph.preheader, %H5G__component.exit23
  %16 = phi i8 [ %31, %H5G__component.exit23 ], [ %11, %.lr.ph.preheader ]
  %.01332 = phi ptr [ %.0.i22, %H5G__component.exit23 ], [ %.0.i18, %.lr.ph.preheader ]
  %.01431 = phi ptr [ %.0.i20, %H5G__component.exit23 ], [ %.0.i, %.lr.ph.preheader ]
  %.02530 = phi i64 [ %34, %H5G__component.exit23 ], [ %15, %.lr.ph.preheader ]
  %.02629 = phi i64 [ %29, %H5G__component.exit23 ], [ %8, %.lr.ph.preheader ]
  %.not17 = icmp eq i8 %16, 0
  br i1 %.not17, label %.critedge, label %17

17:                                               ; preds = %.lr.ph
  %18 = icmp eq i64 %.02629, %.02530
  br i1 %18, label %19, label %.loopexit

19:                                               ; preds = %17
  %20 = tail call i32 @strncmp(ptr noundef nonnull %.01431, ptr noundef nonnull %.01332, i64 noundef %.02530) #9
  %21 = icmp eq i32 %20, 0
  br i1 %21, label %22, label %.loopexit

22:                                               ; preds = %19
  %23 = getelementptr inbounds i8, ptr %.01431, i64 %.02530
  br label %24

24:                                               ; preds = %24, %22
  %.0.i20 = phi ptr [ %23, %22 ], [ %27, %24 ]
  %25 = load i8, ptr %.0.i20, align 1
  %26 = icmp eq i8 %25, 47
  %27 = getelementptr inbounds i8, ptr %.0.i20, i64 1
  br i1 %26, label %24, label %H5G__component.exit21

H5G__component.exit21:                            ; preds = %24
  %28 = getelementptr inbounds i8, ptr %.01332, i64 %.02530
  %29 = tail call i64 @strcspn(ptr noundef nonnull %.0.i20, ptr noundef nonnull @.str) #9
  br label %30

30:                                               ; preds = %30, %H5G__component.exit21
  %.0.i22 = phi ptr [ %28, %H5G__component.exit21 ], [ %33, %30 ]
  %31 = load i8, ptr %.0.i22, align 1
  %32 = icmp eq i8 %31, 47
  %33 = getelementptr inbounds i8, ptr %.0.i22, i64 1
  br i1 %32, label %30, label %H5G__component.exit23

H5G__component.exit23:                            ; preds = %30
  %34 = tail call i64 @strcspn(ptr noundef nonnull %.0.i22, ptr noundef nonnull @.str) #9
  %.not = icmp eq i8 %25, 0
  br i1 %.not, label %.critedge, label %.lr.ph

.critedge:                                        ; preds = %.lr.ph, %H5G__component.exit23, %H5G__component.exit19
  %35 = phi i8 [ %11, %H5G__component.exit19 ], [ %31, %H5G__component.exit23 ], [ 0, %.lr.ph ]
  %36 = icmp eq i8 %35, 0
  %spec.select = zext i1 %36 to i32
  br label %.loopexit

.loopexit:                                        ; preds = %17, %19, %.critedge
  %.0 = phi i32 [ %spec.select, %.critedge ], [ 0, %19 ], [ 0, %17 ]
  ret i32 %.0
}